target datalayout = "e-m:e-p270:32:32-p271:32:32-p272:64:64-i64:64-i128:128-f80:128-n8:16:32:64-S128"
target triple = "x86_64-pc-linux-gnu"

%class.ProjNode = type <{ %class.Node.base, i32, i8, [7 x i8] }>
%class.Node.base = type <{ ptr, ptr, ptr, i32, i32, i32, i32, i32, i32, i32 }>
%class.Node = type <{ ptr, ptr, ptr, i32, i32, i32, i32, i32, i32, i32, [4 x i8] }>
%class.TypeTuple = type { %class.Type.base, i32, ptr }
%class.Type.base = type <{ ptr, ptr, i32 }>
%class.PhaseValues = type { %class.PhaseTransform, i8, ptr, ptr, [137 x ptr], [137 x ptr], [20 x ptr] }
%class.PhaseTransform = type { ptr, %class.Phase }
%class.Phase = type { i32, ptr }
%class.Type = type <{ ptr, ptr, i32, [4 x i8] }>
%class.CallJavaNode = type <{ %class.CallNode, i8, i8, i8, [5 x i8], ptr, i8, [7 x i8] }>
%class.CallNode = type { %class.SafePointNode.base, ptr, ptr, float, ptr, ptr }
%class.SafePointNode.base = type <{ %class.MultiNode.base, [4 x i8], ptr, ptr, %class.ReplacedNodes, i8 }>
%class.MultiNode.base = type { %class.Node.base }
%class.ReplacedNodes = type { ptr }
%class.Type_Array = type { ptr, i32, ptr }

@_ZN4Type3TOPE = external global ptr, align 8
@_ZN4Type6BOTTOME = external global ptr, align 8
@_ZN7TypePtr7NOTNULLE = external global ptr, align 8

; Function Attrs: mustprogress nounwind uwtable
define linkonce_odr hidden noundef ptr @_ZNK4Type4dualEv(ptr noundef nonnull align 8 dereferenceable(20) %0) #1 comdat align 2 {
  %2 = alloca ptr, align 8
  store ptr %0, ptr %2, align 8
  %3 = load ptr, ptr %2, align 8
  %4 = getelementptr inbounds %class.Type, ptr %3, i32 0, i32 1
  %5 = load ptr, ptr %4, align 8
  ret ptr %5
}

; Function Attrs: mustprogress nounwind uwtable
define linkonce_odr hidden void @_ZNK4Type24assert_type_verify_emptyEv(ptr noundef nonnull align 8 dereferenceable(20) %0) #1 comdat align 2 {
  %2 = alloca ptr, align 8
  store ptr %0, ptr %2, align 8
  ret void
}

; Function Attrs: mustprogress nounwind uwtable
define linkonce_odr hidden noundef ptr @_ZNK4Type11join_helperEPKS_b(ptr noundef nonnull align 8 dereferenceable(20) %0, ptr noundef %1, i1 noundef zeroext %2) #1 comdat align 2 {
  %4 = alloca ptr, align 8
  %5 = alloca ptr, align 8
  %6 = alloca i8, align 1
  store ptr %0, ptr %4, align 8
  store ptr %1, ptr %5, align 8
  %7 = zext i1 %2 to i8
  store i8 %7, ptr %6, align 1
  %8 = load ptr, ptr %4, align 8
  call void @_ZNK4Type24assert_type_verify_emptyEv(ptr noundef nonnull align 8 dereferenceable(20) %8)
  %9 = call noundef ptr @_ZNK4Type4dualEv(ptr noundef nonnull align 8 dereferenceable(20) %8)
  %10 = load ptr, ptr %5, align 8
  %11 = call noundef ptr @_ZNK4Type4dualEv(ptr noundef nonnull align 8 dereferenceable(20) %10)
  %12 = load i8, ptr %6, align 1
  %13 = trunc i8 %12 to i1
  %14 = call noundef ptr @_ZNK4Type11meet_helperEPKS_b(ptr noundef nonnull align 8 dereferenceable(20) %9, ptr noundef %11, i1 noundef zeroext %13)
  %15 = call noundef ptr @_ZNK4Type4dualEv(ptr noundef nonnull align 8 dereferenceable(20) %14)
  ret ptr %15
}

; Function Attrs: mustprogress nounwind uwtable
define linkonce_odr hidden noundef ptr @_ZNK12CallJavaNode6methodEv(ptr noundef nonnull align 8 dereferenceable(145) %0) #1 comdat align 2 {
  %2 = alloca ptr, align 8
  store ptr %0, ptr %2, align 8
  %3 = load ptr, ptr %2, align 8
  %4 = getelementptr inbounds %class.CallJavaNode, ptr %3, i32 0, i32 5
  %5 = load ptr, ptr %4, align 8
  ret ptr %5
}

; Function Attrs: mustprogress nounwind uwtable
define linkonce_odr hidden noundef zeroext i1 @_ZNK4Node8is_macroEv(ptr noundef nonnull align 8 dereferenceable(52) %0) #1 comdat align 2 {
  %2 = alloca ptr, align 8
  store ptr %0, ptr %2, align 8
  %3 = load ptr, ptr %2, align 8
  %4 = getelementptr inbounds %class.Node, ptr %3, i32 0, i32 9
  %5 = load i32, ptr %4, align 8
  %6 = and i32 %5, 8
  %7 = icmp ne i32 %6, 0
  ret i1 %7
}

; Function Attrs: mustprogress nounwind uwtable
define linkonce_odr hidden noundef ptr @_ZNK4Type16join_speculativeEPKS_(ptr noundef nonnull align 8 dereferenceable(20) %0, ptr noundef %1) #1 comdat align 2 {
  %3 = alloca ptr, align 8
  %4 = alloca ptr, align 8
  store ptr %0, ptr %3, align 8
  store ptr %1, ptr %4, align 8
  %5 = load ptr, ptr %3, align 8
  %6 = load ptr, ptr %4, align 8
  %7 = call noundef ptr @_ZNK4Type11join_helperEPKS_b(ptr noundef nonnull align 8 dereferenceable(20) %5, ptr noundef %6, i1 noundef zeroext true)
  %8 = load ptr, ptr %7, align 8
  %9 = getelementptr inbounds ptr, ptr %8, i64 17
  %10 = load ptr, ptr %9, align 8
  %11 = call noundef ptr %10(ptr noundef nonnull align 8 dereferenceable(20) %7)
  ret ptr %11
}

; Function Attrs: mustprogress nounwind uwtable
define linkonce_odr hidden noundef zeroext i1 @_ZNK18CallStaticJavaNode16is_boxing_methodEv(ptr noundef nonnull align 8 dereferenceable(145) %0) #1 comdat align 2 {
  %2 = alloca ptr, align 8
  store ptr %0, ptr %2, align 8
  %3 = load ptr, ptr %2, align 8
  %4 = call noundef zeroext i1 @_ZNK4Node8is_macroEv(ptr noundef nonnull align 8 dereferenceable(52) %3)
  br i1 %4, label %5, label %11

5:                                                ; preds = %1
  %6 = call noundef ptr @_ZNK12CallJavaNode6methodEv(ptr noundef nonnull align 8 dereferenceable(145) %3)
  %7 = icmp ne ptr %6, null
  br i1 %7, label %8, label %11

8:                                                ; preds = %5
  %9 = call noundef ptr @_ZNK12CallJavaNode6methodEv(ptr noundef nonnull align 8 dereferenceable(145) %3)
  %10 = call noundef zeroext i1 @_ZNK8ciMethod16is_boxing_methodEv(ptr noundef nonnull align 8 dereferenceable(160) %9)
  br label %11

11:                                               ; preds = %8, %5, %1
  %12 = phi i1 [ false, %5 ], [ false, %1 ], [ %10, %8 ]
  ret i1 %12
}

; Function Attrs: mustprogress nounwind uwtable
define linkonce_odr hidden noundef ptr @_ZNK4Node17as_CallStaticJavaEv(ptr noundef nonnull align 8 dereferenceable(52) %0) #1 comdat align 2 {
  %2 = alloca ptr, align 8
  store ptr %0, ptr %2, align 8
  %3 = load ptr, ptr %2, align 8
  ret ptr %3
}

; Function Attrs: mustprogress nounwind uwtable
define linkonce_odr hidden noundef zeroext i1 @_ZNK4Node17is_CallStaticJavaEv(ptr noundef nonnull align 8 dereferenceable(52) %0) #1 comdat align 2 {
  %2 = alloca ptr, align 8
  store ptr %0, ptr %2, align 8
  %3 = load ptr, ptr %2, align 8
  %4 = getelementptr inbounds %class.Node, ptr %3, i32 0, i32 8
  %5 = load i32, ptr %4, align 4
  %6 = and i32 %5, 31
  %7 = icmp eq i32 %6, 31
  ret i1 %7
}

; Function Attrs: mustprogress nounwind uwtable
define linkonce_odr hidden noundef ptr @_ZNK9TypeTuple8field_atEj(ptr noundef nonnull align 8 dereferenceable(32) %0, i32 noundef %1) #1 comdat align 2 {
  %3 = alloca ptr, align 8
  %4 = alloca i32, align 4
  store ptr %0, ptr %3, align 8
  store i32 %1, ptr %4, align 4
  %5 = load ptr, ptr %3, align 8
  %6 = getelementptr inbounds %class.TypeTuple, ptr %5, i32 0, i32 2
  %7 = load ptr, ptr %6, align 8
  %8 = load i32, ptr %4, align 4
  %9 = zext i32 %8 to i64
  %10 = getelementptr inbounds ptr, ptr %7, i64 %9
  %11 = load ptr, ptr %10, align 8
  ret ptr %11
}

; Function Attrs: mustprogress nounwind uwtable
define linkonce_odr hidden noundef ptr @_ZNK4Type8is_tupleEv(ptr noundef nonnull align 8 dereferenceable(20) %0) #1 comdat align 2 {
  %2 = alloca ptr, align 8
  store ptr %0, ptr %2, align 8
  %3 = load ptr, ptr %2, align 8
  ret ptr %3
}

; Function Attrs: mustprogress nounwind uwtable
define linkonce_odr hidden noundef ptr @_ZNK10Type_Array11fast_lookupEj(ptr noundef nonnull align 8 dereferenceable(24) %0, i32 noundef %1) #1 comdat align 2 {
  %3 = alloca ptr, align 8
  %4 = alloca i32, align 4
  store ptr %0, ptr %3, align 8
  store i32 %1, ptr %4, align 4
  %5 = load ptr, ptr %3, align 8
  %6 = getelementptr inbounds %class.Type_Array, ptr %5, i32 0, i32 2
  %7 = load ptr, ptr %6, align 8
  %8 = load i32, ptr %4, align 4
  %9 = zext i32 %8 to i64
  %10 = getelementptr inbounds ptr, ptr %7, i64 %9
  %11 = load ptr, ptr %10, align 8
  ret ptr %11
}

; Function Attrs: mustprogress nounwind uwtable
define hidden noundef ptr @_ZNK8ProjNode9proj_typeEPK4Type(ptr noundef nonnull align 8 dereferenceable(57) %0, ptr noundef %1) #1 align 2 {
  %3 = alloca ptr, align 8
  %4 = alloca ptr, align 8
  %5 = alloca ptr, align 8
  %6 = alloca ptr, align 8
  store ptr %0, ptr %4, align 8
  store ptr %1, ptr %5, align 8
  %7 = load ptr, ptr %4, align 8
  %8 = load ptr, ptr %5, align 8
  %9 = load ptr, ptr @_ZN4Type3TOPE, align 8
  %10 = icmp eq ptr %8, %9
  br i1 %10, label %11, label %13

11:                                               ; preds = %2
  %12 = load ptr, ptr @_ZN4Type3TOPE, align 8
  store ptr %12, ptr %3, align 8
  br label %42

13:                                               ; preds = %2
  %14 = load ptr, ptr %5, align 8
  %15 = load ptr, ptr @_ZN4Type6BOTTOME, align 8
  %16 = icmp eq ptr %14, %15
  br i1 %16, label %17, label %19

17:                                               ; preds = %13
  %18 = load ptr, ptr @_ZN4Type6BOTTOME, align 8
  store ptr %18, ptr %3, align 8
  br label %42

19:                                               ; preds = %13
  %20 = load ptr, ptr %5, align 8
  %21 = call noundef ptr @_ZNK4Type8is_tupleEv(ptr noundef nonnull align 8 dereferenceable(20) %20)
  %22 = getelementptr inbounds %class.ProjNode, ptr %7, i32 0, i32 1
  %23 = load i32, ptr %22, align 4
  %24 = call noundef ptr @_ZNK9TypeTuple8field_atEj(ptr noundef nonnull align 8 dereferenceable(32) %21, i32 noundef %23)
  store ptr %24, ptr %5, align 8
  %25 = call noundef ptr @_ZNK4Node2inEj(ptr noundef nonnull align 8 dereferenceable(52) %7, i32 noundef 0)
  store ptr %25, ptr %6, align 8
  %26 = getelementptr inbounds %class.ProjNode, ptr %7, i32 0, i32 1
  %27 = load i32, ptr %26, align 4
  %28 = icmp eq i32 %27, 5
  br i1 %28, label %29, label %40

29:                                               ; preds = %19
  %30 = load ptr, ptr %6, align 8
  %31 = call noundef zeroext i1 @_ZNK4Node17is_CallStaticJavaEv(ptr noundef nonnull align 8 dereferenceable(52) %30)
  br i1 %31, label %32, label %40

32:                                               ; preds = %29
  %33 = load ptr, ptr %6, align 8
  %34 = call noundef ptr @_ZNK4Node17as_CallStaticJavaEv(ptr noundef nonnull align 8 dereferenceable(52) %33)
  %35 = call noundef zeroext i1 @_ZNK18CallStaticJavaNode16is_boxing_methodEv(ptr noundef nonnull align 8 dereferenceable(145) %34)
  br i1 %35, label %36, label %40

36:                                               ; preds = %32
  %37 = load ptr, ptr %5, align 8
  %38 = load ptr, ptr @_ZN7TypePtr7NOTNULLE, align 8
  %39 = call noundef ptr @_ZNK4Type16join_speculativeEPKS_(ptr noundef nonnull align 8 dereferenceable(20) %37, ptr noundef %38)
  store ptr %39, ptr %5, align 8
  br label %40

40:                                               ; preds = %36, %32, %29, %19
  %41 = load ptr, ptr %5, align 8
  store ptr %41, ptr %3, align 8
  br label %42

42:                                               ; preds = %40, %17, %11
  %43 = load ptr, ptr %3, align 8
  ret ptr %43
}

; Function Attrs: mustprogress nounwind uwtable
define linkonce_odr hidden noundef ptr @_ZNK11PhaseValues4typeEPK4Node(ptr noundef nonnull align 8 dereferenceable(2400) %0, ptr noundef %1) #1 comdat align 2 {
  %3 = alloca ptr, align 8
  %4 = alloca ptr, align 8
  %5 = alloca ptr, align 8
  store ptr %0, ptr %3, align 8
  store ptr %1, ptr %4, align 8
  %6 = load ptr, ptr %3, align 8
  %7 = getelementptr inbounds %class.PhaseValues, ptr %6, i32 0, i32 3
  %8 = load ptr, ptr %7, align 8
  %9 = load ptr, ptr %4, align 8
  %10 = getelementptr inbounds %class.Node, ptr %9, i32 0, i32 7
  %11 = load i32, ptr %10, align 8
  %12 = call noundef ptr @_ZNK10Type_Array11fast_lookupEj(ptr noundef nonnull align 8 dereferenceable(24) %8, i32 noundef %11)
  store ptr %12, ptr %5, align 8
  %13 = load ptr, ptr %5, align 8
  ret ptr %13
}

; Function Attrs: mustprogress nounwind uwtable
define linkonce_odr hidden noundef ptr @_ZNK4Node2inEj(ptr noundef nonnull align 8 dereferenceable(52) %0, i32 noundef %1) #1 comdat align 2 {
  %3 = alloca ptr, align 8
  %4 = alloca i32, align 4
  store ptr %0, ptr %3, align 8
  store i32 %1, ptr %4, align 4
  %5 = load ptr, ptr %3, align 8
  %6 = getelementptr inbounds %class.Node, ptr %5, i32 0, i32 1
  %7 = load ptr, ptr %6, align 8
  %8 = load i32, ptr %4, align 4
  %9 = zext i32 %8 to i64
  %10 = getelementptr inbounds ptr, ptr %7, i64 %9
  %11 = load ptr, ptr %10, align 8
  ret ptr %11
}

; Function Attrs: mustprogress nounwind uwtable
define hidden noundef ptr @_ZNK8ProjNode5ValueEP8PhaseGVN(ptr noundef nonnull align 8 dereferenceable(57) %0, ptr noundef %1) unnamed_addr #1 align 2 {
  %3 = alloca ptr, align 8
  %4 = alloca ptr, align 8
  %5 = alloca ptr, align 8
  store ptr %0, ptr %4, align 8
  store ptr %1, ptr %5, align 8
  %6 = load ptr, ptr %4, align 8
  %7 = call noundef ptr @_ZNK4Node2inEj(ptr noundef nonnull align 8 dereferenceable(52) %6, i32 noundef 0)
  %8 = icmp eq ptr %7, null
  br i1 %8, label %9, label %11

9:                                                ; preds = %2
  %10 = load ptr, ptr @_ZN4Type3TOPE, align 8
  store ptr %10, ptr %3, align 8
  br label %16

11:                                               ; preds = %2
  %12 = load ptr, ptr %5, align 8
  %13 = call noundef ptr @_ZNK4Node2inEj(ptr noundef nonnull align 8 dereferenceable(52) %6, i32 noundef 0)
  %14 = call noundef ptr @_ZNK11PhaseValues4typeEPK4Node(ptr noundef nonnull align 8 dereferenceable(2400) %12, ptr noundef %13)
  %15 = call noundef ptr @_ZNK8ProjNode9proj_typeEPK4Type(ptr noundef nonnull align 8 dereferenceable(57) %6, ptr noundef %14)
  store ptr %15, ptr %3, align 8
  br label %16

16:                                               ; preds = %11, %9
  %17 = load ptr, ptr %3, align 8
  ret ptr %17
}