; Function Attrs: mustprogress nounwind uwtable
define hidden noundef ptr @_ZNK8ProjNode5ValueEP8PhaseGVN(ptr nocapture noundef nonnull readonly align 8 dereferenceable(57) %0, ptr nocapture noundef readonly %1) unnamed_addr #1 align 2 {
  %3 = getelementptr inbounds i8, ptr %0, i64 8
  %4 = load ptr, ptr %3, align 8
  %5 = load ptr, ptr %4, align 8
  %6 = icmp eq ptr %5, null
  br i1 %6, label %7, label %9

7:                                                ; preds = %2
  %8 = load ptr, ptr @_ZN4Type3TOPE, align 8
  br label %_ZNK8ProjNode9proj_typeEPK4Type.exit

9:                                                ; preds = %2
  %10 = getelementptr inbounds i8, ptr %1, i64 40
  %11 = load ptr, ptr %10, align 8
  %12 = getelementptr inbounds i8, ptr %5, i64 40
  %13 = load i32, ptr %12, align 8
  %14 = getelementptr inbounds i8, ptr %11, i64 16
  %15 = load ptr, ptr %14, align 8
  %16 = zext i32 %13 to i64
  %17 = getelementptr inbounds ptr, ptr %15, i64 %16
  %18 = load ptr, ptr %17, align 8
  %19 = load ptr, ptr @_ZN4Type3TOPE, align 8
  %20 = icmp eq ptr %19, %18
  br i1 %20, label %_ZNK8ProjNode9proj_typeEPK4Type.exit, label %21

21:                                               ; preds = %9
  %22 = load ptr, ptr @_ZN4Type6BOTTOME, align 8
  %23 = icmp eq ptr %22, %18
  br i1 %23, label %_ZNK8ProjNode9proj_typeEPK4Type.exit, label %24

24:                                               ; preds = %21
  %25 = getelementptr inbounds i8, ptr %0, i64 52
  %26 = load i32, ptr %25, align 4
  %27 = getelementptr inbounds i8, ptr %18, i64 24
  %28 = load ptr, ptr %27, align 8
  %29 = zext i32 %26 to i64
  %30 = getelementptr inbounds ptr, ptr %28, i64 %29
  %31 = load ptr, ptr %30, align 8
  %32 = icmp eq i32 %26, 5
  br i1 %32, label %33, label %_ZNK8ProjNode9proj_typeEPK4Type.exit

33:                                               ; preds = %24
  %34 = getelementptr inbounds i8, ptr %5, i64 44
  %35 = load i32, ptr %34, align 4
  %36 = and i32 %35, 31
  %37 = icmp eq i32 %36, 31
  br i1 %37, label %38, label %_ZNK8ProjNode9proj_typeEPK4Type.exit

38:                                               ; preds = %33
  %39 = getelementptr inbounds i8, ptr %5, i64 48
  %40 = load i32, ptr %39, align 8
  %41 = and i32 %40, 8
  %.not1.i.i = icmp eq i32 %41, 0
  br i1 %.not1.i.i, label %_ZNK8ProjNode9proj_typeEPK4Type.exit, label %42

42:                                               ; preds = %38
  %43 = getelementptr inbounds i8, ptr %5, i64 136
  %44 = load ptr, ptr %43, align 8
  %.not.i.i = icmp eq ptr %44, null
  br i1 %.not.i.i, label %_ZNK8ProjNode9proj_typeEPK4Type.exit, label %_ZNK18CallStaticJavaNode16is_boxing_methodEv.exit.i

_ZNK18CallStaticJavaNode16is_boxing_methodEv.exit.i: ; preds = %42
  %45 = tail call noundef zeroext i1 @_ZNK8ciMethod16is_boxing_methodEv(ptr noundef nonnull align 8 dereferenceable(160) %44) #6
  br i1 %45, label %46, label %_ZNK8ProjNode9proj_typeEPK4Type.exit

46:                                               ; preds = %_ZNK18CallStaticJavaNode16is_boxing_methodEv.exit.i
  %47 = load ptr, ptr @_ZN7TypePtr7NOTNULLE, align 8
  %48 = getelementptr inbounds i8, ptr %31, i64 8
  %49 = load ptr, ptr %48, align 8
  %50 = getelementptr inbounds i8, ptr %47, i64 8
  %51 = load ptr, ptr %50, align 8
  %52 = tail call noundef ptr @_ZNK4Type11meet_helperEPKS_b(ptr noundef nonnull align 8 dereferenceable(20) %49, ptr noundef %51, i1 noundef zeroext true) #6
  %53 = getelementptr inbounds i8, ptr %52, i64 8
  %54 = load ptr, ptr %53, align 8
  %55 = load ptr, ptr %54, align 8
  %56 = getelementptr inbounds i8, ptr %55, i64 136
  %57 = load ptr, ptr %56, align 8
  %58 = tail call noundef ptr %57(ptr noundef nonnull align 8 dereferenceable(20) %54) #6
  br label %_ZNK8ProjNode9proj_typeEPK4Type.exit

_ZNK8ProjNode9proj_typeEPK4Type.exit:             ; preds = %46, %_ZNK18CallStaticJavaNode16is_boxing_methodEv.exit.i, %42, %38, %33, %24, %21, %9, %7
  %.0 = phi ptr [ %8, %7 ], [ %19, %9 ], [ %22, %21 ], [ %58, %46 ], [ %31, %_ZNK18CallStaticJavaNode16is_boxing_methodEv.exit.i ], [ %31, %33 ], [ %31, %24 ], [ %31, %42 ], [ %31, %38 ]
  ret ptr %.0
}